; ModuleID = '15/45.c'
source_filename = "15/45.c"
target datalayout = "e-m:e-p270:32:32-p271:32:32-p272:64:64-i64:64-f80:128-n8:16:32:64-S128"
target triple = "x86_64-pc-linux-gnu"

@.str = private unnamed_addr constant [3 x i8] c"%d\00", align 1

; Function Attrs: noinline nounwind uwtable
define dso_local i32 @main() #0 {
  %1 = alloca i32, align 4
  %2 = alloca i32, align 4
  %3 = alloca i32, align 4
  %4 = alloca i32, align 4
  %5 = alloca i32, align 4
  %6 = alloca i32, align 4
  %7 = alloca i32, align 4
  %8 = alloca i32, align 4
  %9 = alloca i32, align 4
  %10 = alloca i32, align 4
  %11 = alloca i32, align 4
  %12 = alloca i32, align 4
  %13 = alloca i32, align 4
  store i32 0, i32* %1, align 4
  store i32 0, i32* %2, align 4
  %14 = call i32 (i8*, ...) @__isoc99_scanf(i8* getelementptr inbounds ([3 x i8], [3 x i8]* @.str, i64 0, i64 0), i32* %3)
  store i32 0, i32* %5, align 4
  br label %15

15:                                               ; preds = %43, %0
  %16 = load i32, i32* %5, align 4
  %17 = load i32, i32* %3, align 4
  %18 = icmp slt i32 %16, %17
  br i1 %18, label %19, label %46

19:                                               ; preds = %15
  store i32 0, i32* %6, align 4
  br label %20

20:                                               ; preds = %39, %19
  %21 = load i32, i32* %6, align 4
  %22 = load i32, i32* %3, align 4
  %23 = icmp slt i32 %21, %22
  br i1 %23, label %24, label %42

24:                                               ; preds = %20
  %25 = call i32 (i8*, ...) @__isoc99_scanf(i8* getelementptr inbounds ([3 x i8], [3 x i8]* @.str, i64 0, i64 0), i32* %4)
  %26 = load i32, i32* %4, align 4
  %27 = icmp eq i32 %26, 0
  br i1 %27, label %28, label %38

28:                                               ; preds = %24
  %29 = load i32, i32* %2, align 4
  %30 = icmp eq i32 %29, 0
  br i1 %30, label %31, label %34

31:                                               ; preds = %28
  %32 = load i32, i32* %5, align 4
  store i32 %32, i32* %10, align 4
  %33 = load i32, i32* %6, align 4
  store i32 %33, i32* %11, align 4
  store i32 1, i32* %2, align 4
  br label %37

34:                                               ; preds = %28
  %35 = load i32, i32* %5, align 4
  store i32 %35, i32* %12, align 4
  %36 = load i32, i32* %6, align 4
  store i32 %36, i32* %13, align 4
  br label %37

37:                                               ; preds = %34, %31
  br label %38

38:                                               ; preds = %37, %24
  br label %39

39:                                               ; preds = %38
  %40 = load i32, i32* %6, align 4
  %41 = add nsw i32 %40, 1
  store i32 %41, i32* %6, align 4
  br label %20

42:                                               ; preds = %20
  br label %43

43:                                               ; preds = %42
  %44 = load i32, i32* %5, align 4
  %45 = add nsw i32 %44, 1
  store i32 %45, i32* %5, align 4
  br label %15

46:                                               ; preds = %15
  %47 = load i32, i32* %12, align 4
  %48 = load i32, i32* %10, align 4
  %49 = sub nsw i32 %47, %48
  %50 = sub nsw i32 %49, 1
  store i32 %50, i32* %8, align 4
  %51 = load i32, i32* %13, align 4
  %52 = load i32, i32* %11, align 4
  %53 = sub nsw i32 %51, %52
  %54 = sub nsw i32 %53, 1
  store i32 %54, i32* %9, align 4
  %55 = load i32, i32* %8, align 4
  %56 = load i32, i32* %9, align 4
  %57 = mul nsw i32 %55, %56
  store i32 %57, i32* %7, align 4
  %58 = load i32, i32* %7, align 4
  %59 = call i32 (i8*, ...) @printf(i8* getelementptr inbounds ([3 x i8], [3 x i8]* @.str, i64 0, i64 0), i32 %58)
  ret i32 0
}

declare dso_local i32 @__isoc99_scanf(i8*, ...) #1

declare dso_local i32 @printf(i8*, ...) #1


!llvm.module.flags = !{!0}
!llvm.ident = !{!1}

!0 = !{i32 1, !"wchar_size", i32 4}
!1 = !{!"clang version 10.0.0-4ubuntu1 "}
