; ModuleID = 'source-C-CXX/14/45.c'
source_filename = "source-C-CXX/14/45.c"
target datalayout = "e-m:e-p270:32:32-p271:32:32-p272:64:64-i64:64-f80:128-n8:16:32:64-S128"
target triple = "x86_64-pc-linux-gnu"

@.str = private unnamed_addr constant [3 x i8] c"%d\00", align 1

; Function Attrs: nofree nounwind sspstrong uwtable
define dso_local i32 @main() local_unnamed_addr #0 {
  %1 = alloca i32, align 4
  %2 = alloca i32, align 4
  %3 = bitcast i32* %1 to i8*
  call void @llvm.lifetime.start.p0i8(i64 4, i8* nonnull %3) #3
  %4 = bitcast i32* %2 to i8*
  call void @llvm.lifetime.start.p0i8(i64 4, i8* nonnull %4) #3
  %5 = call i32 (i8*, ...) @__isoc99_scanf(i8* getelementptr inbounds ([3 x i8], [3 x i8]* @.str, i64 0, i64 0), i32* nonnull %1)
  %6 = load i32, i32* %1, align 4, !tbaa !5
  %7 = icmp sgt i32 %6, 0
  br i1 %7, label %8, label %51

8:                                                ; preds = %0, %42
  %9 = phi i32 [ %43, %42 ], [ %6, %0 ]
  %10 = phi i32 [ %48, %42 ], [ undef, %0 ]
  %11 = phi i32 [ %47, %42 ], [ undef, %0 ]
  %12 = phi i32 [ %46, %42 ], [ undef, %0 ]
  %13 = phi i32 [ %45, %42 ], [ undef, %0 ]
  %14 = phi i32 [ %44, %42 ], [ 0, %0 ]
  %15 = phi i32 [ %49, %42 ], [ 0, %0 ]
  %16 = icmp sgt i32 %9, 0
  br i1 %16, label %17, label %42

17:                                               ; preds = %8, %33
  %18 = phi i32 [ %38, %33 ], [ %10, %8 ]
  %19 = phi i32 [ %37, %33 ], [ %11, %8 ]
  %20 = phi i32 [ %36, %33 ], [ %12, %8 ]
  %21 = phi i32 [ %35, %33 ], [ %13, %8 ]
  %22 = phi i32 [ %34, %33 ], [ %14, %8 ]
  %23 = phi i32 [ %39, %33 ], [ 0, %8 ]
  %24 = call i32 (i8*, ...) @__isoc99_scanf(i8* getelementptr inbounds ([3 x i8], [3 x i8]* @.str, i64 0, i64 0), i32* nonnull %2)
  %25 = load i32, i32* %2, align 4, !tbaa !5
  %26 = icmp eq i32 %25, 0
  br i1 %26, label %27, label %33

27:                                               ; preds = %17
  %28 = icmp eq i32 %22, 0
  %29 = select i1 %28, i32 %15, i32 %21
  %30 = select i1 %28, i32 %23, i32 %20
  %31 = select i1 %28, i32 %19, i32 %15
  %32 = select i1 %28, i32 %18, i32 %23
  br label %33

33:                                               ; preds = %27, %17
  %34 = phi i32 [ %22, %17 ], [ 1, %27 ]
  %35 = phi i32 [ %21, %17 ], [ %29, %27 ]
  %36 = phi i32 [ %20, %17 ], [ %30, %27 ]
  %37 = phi i32 [ %19, %17 ], [ %31, %27 ]
  %38 = phi i32 [ %18, %17 ], [ %32, %27 ]
  %39 = add nuw nsw i32 %23, 1
  %40 = load i32, i32* %1, align 4, !tbaa !5
  %41 = icmp slt i32 %39, %40
  br i1 %41, label %17, label %42, !llvm.loop !9

42:                                               ; preds = %33, %8
  %43 = phi i32 [ %9, %8 ], [ %40, %33 ]
  %44 = phi i32 [ %14, %8 ], [ %34, %33 ]
  %45 = phi i32 [ %13, %8 ], [ %35, %33 ]
  %46 = phi i32 [ %12, %8 ], [ %36, %33 ]
  %47 = phi i32 [ %11, %8 ], [ %37, %33 ]
  %48 = phi i32 [ %10, %8 ], [ %38, %33 ]
  %49 = add nuw nsw i32 %15, 1
  %50 = icmp slt i32 %49, %43
  br i1 %50, label %8, label %51, !llvm.loop !11

51:                                               ; preds = %42, %0
  %52 = phi i32 [ undef, %0 ], [ %45, %42 ]
  %53 = phi i32 [ undef, %0 ], [ %46, %42 ]
  %54 = phi i32 [ undef, %0 ], [ %47, %42 ]
  %55 = phi i32 [ undef, %0 ], [ %48, %42 ]
  %56 = xor i32 %52, -1
  %57 = add i32 %54, %56
  %58 = xor i32 %53, -1
  %59 = add i32 %55, %58
  %60 = mul nsw i32 %59, %57
  %61 = call i32 (i8*, ...) @printf(i8* nonnull dereferenceable(1) getelementptr inbounds ([3 x i8], [3 x i8]* @.str, i64 0, i64 0), i32 %60)
  call void @llvm.lifetime.end.p0i8(i64 4, i8* nonnull %4) #3
  call void @llvm.lifetime.end.p0i8(i64 4, i8* nonnull %3) #3
  ret i32 0
}

; Function Attrs: argmemonly mustprogress nofree nosync nounwind willreturn
declare void @llvm.lifetime.start.p0i8(i64 immarg, i8* nocapture) #1

; Function Attrs: nofree nounwind
declare noundef i32 @__isoc99_scanf(i8* nocapture noundef readonly, ...) local_unnamed_addr #2

; Function Attrs: nofree nounwind
declare noundef i32 @printf(i8* nocapture noundef readonly, ...) local_unnamed_addr #2

; Function Attrs: argmemonly mustprogress nofree nosync nounwind willreturn
declare void @llvm.lifetime.end.p0i8(i64 immarg, i8* nocapture) #1


!llvm.module.flags = !{!0, !1, !2, !3}
!llvm.ident = !{!4}

!0 = !{i32 1, !"wchar_size", i32 4}
!1 = !{i32 7, !"PIC Level", i32 2}
!2 = !{i32 7, !"PIE Level", i32 2}
!3 = !{i32 7, !"uwtable", i32 1}
!4 = !{!"clang version 13.0.0"}
!5 = !{!6, !6, i64 0}
!6 = !{!"int", !7, i64 0}
!7 = !{!"omnipotent char", !8, i64 0}
!8 = !{!"Simple C/C++ TBAA"}
!9 = distinct !{!9, !10}
!10 = !{!"llvm.loop.mustprogress"}
!11 = distinct !{!11, !10, !12}
!12 = !{!"llvm.loop.unswitch.partial.disable"}
